(lp0
I153846770
aI153846771
aI153846772
aI153846773
aI153846774
aI153846775
aI153846776
aI153846777
aI153846778
aI153846779
aI153846780
aI153846781
aI153846782
aI153846783
aI153846784
aI153846785
aI153846786
aI153846787
aI153846788
aI153846789
aI153846790
aI153846791
aI153846792
aI153846793
aI153846794
aI153846795
aI153846796
aI153846797
aI153846798
aI153846799
aI153846800
aI153846801
aI153846802
aI153846803
aI153846804
aI153846805
a.